target datalayout = "e-m:e-p270:32:32-p271:32:32-p272:64:64-i64:64-i128:128-f80:128-n8:16:32:64-S128"
target triple = "x86_64-pc-linux-gnu"

%struct.PgStat_KindInfo = type { i8, i32, i32, i32, i32, i32, i32, ptr, ptr, ptr, ptr, ptr, ptr, ptr, ptr, ptr, ptr, ptr, ptr }

@pgstat_kind_custom_infos = internal global ptr null, align 8

; Function Attrs: inlinehint nounwind uwtable
define internal zeroext i1 @pgstat_is_kind_custom(i32 noundef %0) #6 {
  %2 = alloca i32, align 4
  store i32 %0, ptr %2, align 4
  %3 = load i32, ptr %2, align 4
  %4 = icmp uge i32 %3, 128
  br i1 %4, label %5, label %8

5:                                                ; preds = %1
  %6 = load i32, ptr %2, align 4
  %7 = icmp ule i32 %6, 256
  br label %8

8:                                                ; preds = %5, %1
  %9 = phi i1 [ false, %1 ], [ %7, %5 ]
  ret i1 %9
}

; Function Attrs: inlinehint nounwind uwtable
define internal zeroext i1 @pgstat_is_kind_builtin(i32 noundef %0) #6 {
  %2 = alloca i32, align 4
  store i32 %0, ptr %2, align 4
  %3 = load i32, ptr %2, align 4
  %4 = icmp uge i32 %3, 1
  br i1 %4, label %5, label %8

5:                                                ; preds = %1
  %6 = load i32, ptr %2, align 4
  %7 = icmp ule i32 %6, 12
  br label %8

8:                                                ; preds = %5, %1
  %9 = phi i1 [ false, %1 ], [ %7, %5 ]
  ret i1 %9
}

; Function Attrs: nounwind uwtable
define dso_local ptr @pgstat_get_kind_info(i32 noundef %0) #0 {
  %2 = alloca ptr, align 8
  %3 = alloca i32, align 4
  %4 = alloca i32, align 4
  %5 = alloca i32, align 4
  store i32 %0, ptr %3, align 4
  %6 = load i32, ptr %3, align 4
  %7 = call zeroext i1 @pgstat_is_kind_builtin(i32 noundef %6)
  br i1 %7, label %8, label %12

8:                                                ; preds = %1
  %9 = load i32, ptr %3, align 4
  %10 = zext i32 %9 to i64
  %11 = getelementptr inbounds nuw [13 x %struct.PgStat_KindInfo], ptr @pgstat_kind_builtin_infos, i64 0, i64 %10
  store ptr %11, ptr %2, align 8
  br label %36

12:                                               ; preds = %1
  %13 = load i32, ptr %3, align 4
  %14 = call zeroext i1 @pgstat_is_kind_custom(i32 noundef %13)
  br i1 %14, label %15, label %35

15:                                               ; preds = %12
  call void @llvm.lifetime.start.p0(i64 4, ptr %4) #12
  %16 = load i32, ptr %3, align 4
  %17 = sub i32 %16, 128
  store i32 %17, ptr %4, align 4
  %18 = load ptr, ptr @pgstat_kind_custom_infos, align 8
  %19 = icmp eq ptr %18, null
  br i1 %19, label %27, label %20

20:                                               ; preds = %15
  %21 = load ptr, ptr @pgstat_kind_custom_infos, align 8
  %22 = load i32, ptr %4, align 4
  %23 = zext i32 %22 to i64
  %24 = getelementptr inbounds nuw ptr, ptr %21, i64 %23
  %25 = load ptr, ptr %24, align 8
  %26 = icmp eq ptr %25, null
  br i1 %26, label %27, label %28

27:                                               ; preds = %20, %15
  store ptr null, ptr %2, align 8
  store i32 1, ptr %5, align 4
  br label %34

28:                                               ; preds = %20
  %29 = load ptr, ptr @pgstat_kind_custom_infos, align 8
  %30 = load i32, ptr %4, align 4
  %31 = zext i32 %30 to i64
  %32 = getelementptr inbounds nuw ptr, ptr %29, i64 %31
  %33 = load ptr, ptr %32, align 8
  store ptr %33, ptr %2, align 8
  store i32 1, ptr %5, align 4
  br label %34

34:                                               ; preds = %28, %27
  call void @llvm.lifetime.end.p0(i64 4, ptr %4) #12
  br label %36

35:                                               ; preds = %12
  store ptr null, ptr %2, align 8
  br label %36

36:                                               ; preds = %35, %34, %8
  %37 = load ptr, ptr %2, align 8
  ret ptr %37
}

; Function Attrs: nounwind uwtable
define dso_local void @pgstat_reset(i32 noundef %0, i32 noundef %1, i64 noundef %2) #0 {
  %4 = alloca i32, align 4
  %5 = alloca i32, align 4
  %6 = alloca i64, align 8
  %7 = alloca ptr, align 8
  %8 = alloca i64, align 8
  store i32 %0, ptr %4, align 4
  store i32 %1, ptr %5, align 4
  store i64 %2, ptr %6, align 8
  call void @llvm.lifetime.start.p0(i64 8, ptr %7) #12
  %9 = load i32, ptr %4, align 4
  %10 = call ptr @pgstat_get_kind_info(i32 noundef %9)
  store ptr %10, ptr %7, align 8
  call void @llvm.lifetime.start.p0(i64 8, ptr %8) #12
  %11 = call i64 @GetCurrentTimestamp()
  store i64 %11, ptr %8, align 8
  %12 = load i32, ptr %4, align 4
  %13 = load i32, ptr %5, align 4
  %14 = load i64, ptr %6, align 8
  %15 = load i64, ptr %8, align 8
  call void @pgstat_reset_entry(i32 noundef %12, i32 noundef %13, i64 noundef %14, i64 noundef %15)
  %16 = load ptr, ptr %7, align 8
  %17 = load i8, ptr %16, align 8
  %18 = lshr i8 %17, 1
  %19 = and i8 %18, 1
  %20 = trunc i8 %19 to i1
  br i1 %20, label %24, label %21

21:                                               ; preds = %3
  %22 = load i32, ptr %5, align 4
  %23 = load i64, ptr %8, align 8
  call void @pgstat_reset_database_timestamp(i32 noundef %22, i64 noundef %23)
  br label %24

24:                                               ; preds = %21, %3
  call void @llvm.lifetime.end.p0(i64 8, ptr %8) #12
  call void @llvm.lifetime.end.p0(i64 8, ptr %7) #12
  ret void
}