; Function Attrs: nounwind uwtable
define dso_local void @pgstat_reset(i32 noundef %0, i32 noundef %1, i64 noundef %2) local_unnamed_addr #0 {
  %4 = add i32 %0, -1
  %5 = icmp ult i32 %4, 12
  br i1 %5, label %6, label %9

6:                                                ; preds = %3
  %7 = zext nneg i32 %0 to i64
  %8 = getelementptr inbounds nuw [13 x %struct.PgStat_KindInfo], ptr @pgstat_kind_builtin_infos, i64 0, i64 %7
  br label %pgstat_get_kind_info.exit

9:                                                ; preds = %3
  %10 = add i32 %0, -128
  %11 = icmp ult i32 %10, 129
  br i1 %11, label %12, label %pgstat_get_kind_info.exit

12:                                               ; preds = %9
  %13 = load ptr, ptr @pgstat_kind_custom_infos, align 8
  %14 = icmp eq ptr %13, null
  br i1 %14, label %pgstat_get_kind_info.exit, label %15

15:                                               ; preds = %12
  %16 = zext nneg i32 %10 to i64
  %17 = getelementptr inbounds nuw ptr, ptr %13, i64 %16
  %18 = load ptr, ptr %17, align 8
  br label %pgstat_get_kind_info.exit

pgstat_get_kind_info.exit:                        ; preds = %6, %9, %12, %15
  %.0.i = phi ptr [ %8, %6 ], [ null, %12 ], [ null, %9 ], [ %18, %15 ]
  %19 = tail call i64 @GetCurrentTimestamp() #17
  tail call void @pgstat_reset_entry(i32 noundef %0, i32 noundef %1, i64 noundef %2, i64 noundef %19) #17
  %20 = load i8, ptr %.0.i, align 8
  %21 = and i8 %20, 2
  %.not = icmp eq i8 %21, 0
  br i1 %.not, label %22, label %23

22:                                               ; preds = %pgstat_get_kind_info.exit
  tail call void @pgstat_reset_database_timestamp(i32 noundef %1, i64 noundef %19) #17
  br label %23

23:                                               ; preds = %22, %pgstat_get_kind_info.exit
  ret void
}